target datalayout = "e-m:e-p270:32:32-p271:32:32-p272:64:64-i64:64-i128:128-f80:128-n8:16:32:64-S128"
target triple = "x86_64-pc-linux-gnu"

%struct.ctlog_store_st = type { ptr, ptr, ptr }
%struct.ctlog_st = type { ptr, ptr, ptr, [32 x i8], ptr }

; Function Attrs: inlinehint nounwind uwtable
define internal ptr @ossl_check_const_CTLOG_sk_type(ptr noundef %0) #3 {
  %2 = alloca ptr, align 8
  store ptr %0, ptr %2, align 8, !tbaa !17
  %3 = load ptr, ptr %2, align 8, !tbaa !17
  ret ptr %3
}

; Function Attrs: nounwind uwtable
define ptr @CTLOG_STORE_get0_log_by_id(ptr noundef %0, ptr noundef %1, i64 noundef %2) #0 {
  %4 = alloca ptr, align 8
  %5 = alloca ptr, align 8
  %6 = alloca ptr, align 8
  %7 = alloca i64, align 8
  %8 = alloca i32, align 4
  %9 = alloca ptr, align 8
  %10 = alloca i32, align 4
  store ptr %0, ptr %5, align 8, !tbaa !10
  store ptr %1, ptr %6, align 8, !tbaa !8
  store i64 %2, ptr %7, align 8, !tbaa !44
  call void @llvm.lifetime.start.p0(i64 4, ptr %8) #5
  store i32 0, ptr %8, align 4, !tbaa !26
  br label %11

11:                                               ; preds = %39, %3
  %12 = load i32, ptr %8, align 4, !tbaa !26
  %13 = load ptr, ptr %5, align 8, !tbaa !10
  %14 = getelementptr inbounds nuw %struct.ctlog_store_st, ptr %13, i32 0, i32 2
  %15 = load ptr, ptr %14, align 8, !tbaa !16
  %16 = call ptr @ossl_check_const_CTLOG_sk_type(ptr noundef %15)
  %17 = call i32 @OPENSSL_sk_num(ptr noundef %16)
  %18 = icmp slt i32 %12, %17
  br i1 %18, label %19, label %42

19:                                               ; preds = %11
  call void @llvm.lifetime.start.p0(i64 8, ptr %9) #5
  %20 = load ptr, ptr %5, align 8, !tbaa !10
  %21 = getelementptr inbounds nuw %struct.ctlog_store_st, ptr %20, i32 0, i32 2
  %22 = load ptr, ptr %21, align 8, !tbaa !16
  %23 = call ptr @ossl_check_const_CTLOG_sk_type(ptr noundef %22)
  %24 = load i32, ptr %8, align 4, !tbaa !26
  %25 = call ptr @OPENSSL_sk_value(ptr noundef %23, i32 noundef %24)
  store ptr %25, ptr %9, align 8, !tbaa !19
  %26 = load ptr, ptr %9, align 8, !tbaa !19
  %27 = getelementptr inbounds nuw %struct.ctlog_st, ptr %26, i32 0, i32 3
  %28 = getelementptr inbounds [32 x i8], ptr %27, i64 0, i64 0
  %29 = load ptr, ptr %6, align 8, !tbaa !8
  %30 = load i64, ptr %7, align 8, !tbaa !44
  %31 = call i32 @memcmp(ptr noundef %28, ptr noundef %29, i64 noundef %30) #6
  %32 = icmp eq i32 %31, 0
  br i1 %32, label %33, label %35

33:                                               ; preds = %19
  %34 = load ptr, ptr %9, align 8, !tbaa !19
  store ptr %34, ptr %4, align 8
  store i32 1, ptr %10, align 4
  br label %36

35:                                               ; preds = %19
  store i32 0, ptr %10, align 4
  br label %36

36:                                               ; preds = %35, %33
  call void @llvm.lifetime.end.p0(i64 8, ptr %9) #5
  %37 = load i32, ptr %10, align 4
  switch i32 %37, label %43 [
    i32 0, label %38
  ]

38:                                               ; preds = %36
  br label %39

39:                                               ; preds = %38
  %40 = load i32, ptr %8, align 4, !tbaa !26
  %41 = add nsw i32 %40, 1
  store i32 %41, ptr %8, align 4, !tbaa !26
  br label %11, !llvm.loop !45

42:                                               ; preds = %11
  store ptr null, ptr %4, align 8
  store i32 1, ptr %10, align 4
  br label %43

43:                                               ; preds = %42, %36
  call void @llvm.lifetime.end.p0(i64 4, ptr %8) #5
  %44 = load ptr, ptr %4, align 8
  ret ptr %44
}