; Function Attrs: nounwind uwtable
define ptr @CTLOG_STORE_get0_log_by_id(ptr noundef readonly captures(none) %0, ptr noundef readonly captures(none) %1, i64 noundef %2) local_unnamed_addr #0 {
  %4 = getelementptr inbounds nuw i8, ptr %0, i64 16
  %5 = load ptr, ptr %4, align 8, !tbaa !12
  %6 = tail call i32 @OPENSSL_sk_num(ptr noundef %5) #6
  %7 = icmp sgt i32 %6, 0
  br i1 %7, label %.lr.ph, label %._crit_edge

8:                                                ; preds = %.lr.ph
  %9 = add nuw nsw i32 %.01112, 1
  %10 = load ptr, ptr %4, align 8, !tbaa !12
  %11 = tail call i32 @OPENSSL_sk_num(ptr noundef %10) #6
  %12 = icmp slt i32 %9, %11
  br i1 %12, label %.lr.ph, label %._crit_edge, !llvm.loop !30

.lr.ph:                                           ; preds = %3, %8
  %.01112 = phi i32 [ %9, %8 ], [ 0, %3 ]
  %13 = load ptr, ptr %4, align 8, !tbaa !12
  %14 = tail call ptr @OPENSSL_sk_value(ptr noundef %13, i32 noundef %.01112) #6
  %15 = getelementptr inbounds nuw i8, ptr %14, i64 24
  %bcmp = tail call i32 @bcmp(ptr nonnull %15, ptr %1, i64 %2)
  %.not = icmp eq i32 %bcmp, 0
  br i1 %.not, label %._crit_edge, label %8

._crit_edge:                                      ; preds = %.lr.ph, %8, %3
  %.2 = phi ptr [ null, %3 ], [ null, %8 ], [ %14, %.lr.ph ]
  ret ptr %.2
}